target datalayout = "e-m:e-p270:32:32-p271:32:32-p272:64:64-i64:64-i128:128-f80:128-n8:16:32:64-S128"
target triple = "x86_64-pc-linux-gnu"

%"class.ozz::options::Option" = type { ptr, ptr, ptr, i8, i8, ptr }

; Function Attrs: mustprogress uwtable
define dso_local noundef zeroext i1 @_ZN3ozz7options6Option5ParseEPKc(ptr noundef nonnull align 8 dereferenceable(40) %0, ptr noundef %1) #4 align 2 {
  %3 = alloca i1, align 1
  %4 = alloca ptr, align 8
  %5 = alloca ptr, align 8
  store ptr %0, ptr %4, align 8, !tbaa !26
  store ptr %1, ptr %5, align 8, !tbaa !9
  %6 = load ptr, ptr %4, align 8
  %7 = load ptr, ptr %5, align 8, !tbaa !9
  %8 = load ptr, ptr %6, align 8, !tbaa !16
  %9 = getelementptr inbounds ptr, ptr %8, i64 4
  %10 = load ptr, ptr %9, align 8
  %11 = call noundef zeroext i1 %10(ptr noundef nonnull align 8 dereferenceable(40) %6, ptr noundef %7)
  br i1 %11, label %12, label %18

12:                                               ; preds = %2
  %13 = getelementptr inbounds nuw %"class.ozz::options::Option", ptr %6, i32 0, i32 4
  %14 = load i8, ptr %13, align 1, !tbaa !67, !range !14, !noundef !15
  %15 = trunc i8 %14 to i1
  br i1 %15, label %18, label %16

16:                                               ; preds = %12
  %17 = getelementptr inbounds nuw %"class.ozz::options::Option", ptr %6, i32 0, i32 4
  store i8 1, ptr %17, align 1, !tbaa !67
  store i1 true, ptr %3, align 1
  br label %19

18:                                               ; preds = %12, %2
  store i1 false, ptr %3, align 1
  br label %19

19:                                               ; preds = %18, %16
  %20 = load i1, ptr %3, align 1
  ret i1 %20
}