; Function Attrs: mustprogress uwtable
define dso_local noundef zeroext i1 @_ZN3ozz7options6Option5ParseEPKc(ptr noundef nonnull align 8 dereferenceable(40) %0, ptr noundef %1) local_unnamed_addr #3 align 2 {
  %3 = load ptr, ptr %0, align 8, !tbaa !18
  %4 = getelementptr inbounds nuw i8, ptr %3, i64 32
  %5 = load ptr, ptr %4, align 8
  %6 = tail call noundef zeroext i1 %5(ptr noundef nonnull align 8 dereferenceable(40) %0, ptr noundef %1)
  br i1 %6, label %7, label %12

7:                                                ; preds = %2
  %8 = getelementptr inbounds nuw i8, ptr %0, i64 25
  %9 = load i8, ptr %8, align 1, !tbaa !13, !range !73, !noundef !74
  %10 = trunc nuw i8 %9 to i1
  br i1 %10, label %12, label %11

11:                                               ; preds = %7
  store i8 1, ptr %8, align 1, !tbaa !13
  br label %12

12:                                               ; preds = %2, %7, %11
  %.0 = phi i1 [ true, %11 ], [ false, %7 ], [ false, %2 ]
  ret i1 %.0
}